; Function Attrs: nounwind uwtable
define ptr @l_Nat_lcm(ptr noundef %0, ptr noundef %1) local_unnamed_addr #0 {
  %3 = ptrtoint ptr %0 to i64
  %4 = and i64 %3, 1
  %.not = icmp eq i64 %4, 0
  br i1 %.not, label %.critedge.i, label %5, !prof !4

5:                                                ; preds = %2
  %6 = ptrtoint ptr %1 to i64
  %7 = and i64 %6, 1
  %.not14 = icmp eq i64 %7, 0
  br i1 %.not14, label %.critedge.i, label %8, !prof !4

8:                                                ; preds = %5
  %9 = lshr i64 %3, 1
  %10 = icmp ult ptr %0, inttoptr (i64 2 to ptr)
  br i1 %10, label %lean_nat_mul.exit, label %11

11:                                               ; preds = %8
  %12 = lshr i64 %6, 1
  %mul.i = tail call { i64, i1 } @llvm.umul.with.overflow.i64(i64 %9, i64 %12)
  %mul.val.i = extractvalue { i64, i1 } %mul.i, 0
  %13 = icmp sgt i64 %mul.val.i, -1
  br i1 %13, label %14, label %19

14:                                               ; preds = %11
  %mul.ov.i = extractvalue { i64, i1 } %mul.i, 1
  br i1 %mul.ov.i, label %19, label %15

15:                                               ; preds = %14
  %16 = shl nuw i64 %mul.val.i, 1
  %17 = or disjoint i64 %16, 1
  %18 = inttoptr i64 %17 to ptr
  br label %lean_nat_mul.exit

19:                                               ; preds = %14, %11
  %20 = tail call ptr @lean_nat_overflow_mul(i64 noundef %9, i64 noundef %12) #4
  br label %lean_nat_mul.exit

.critedge.i:                                      ; preds = %5, %2
  %21 = tail call ptr @lean_nat_big_mul(ptr noundef %0, ptr noundef %1) #4
  br label %lean_nat_mul.exit

lean_nat_mul.exit:                                ; preds = %8, %15, %19, %.critedge.i
  %.2.i = phi ptr [ %21, %.critedge.i ], [ %0, %8 ], [ %18, %15 ], [ %20, %19 ]
  %22 = tail call ptr @lean_nat_gcd(ptr noundef %0, ptr noundef %1) #4
  %23 = ptrtoint ptr %.2.i to i64
  %24 = and i64 %23, 1
  %.not.i12 = icmp eq i64 %24, 0
  %.pre19 = ptrtoint ptr %22 to i64
  %.pre = and i64 %.pre19, 1
  %25 = icmp eq i64 %.pre, 0
  br i1 %.not.i12, label %lean_nat_div.exit, label %26, !prof !4

26:                                               ; preds = %lean_nat_mul.exit
  br i1 %25, label %lean_nat_div.exit.thread23, label %28, !prof !4

lean_nat_div.exit.thread23:                       ; preds = %26
  %27 = tail call ptr @lean_nat_big_div(ptr noundef %.2.i, ptr noundef %22) #4
  br label %38

28:                                               ; preds = %26
  %29 = icmp ult ptr %22, inttoptr (i64 2 to ptr)
  br i1 %29, label %lean_dec.exit9, label %30

30:                                               ; preds = %28
  %31 = lshr i64 %.pre19, 1
  %32 = lshr i64 %23, 1
  %33 = udiv i64 %32, %31
  %34 = shl nuw i64 %33, 1
  %35 = or disjoint i64 %34, 1
  %36 = inttoptr i64 %35 to ptr
  br label %lean_dec.exit9

lean_nat_div.exit:                                ; preds = %lean_nat_mul.exit
  %37 = tail call ptr @lean_nat_big_div(ptr noundef %.2.i, ptr noundef %22) #4
  br i1 %25, label %38, label %lean_dec.exit.thread

38:                                               ; preds = %lean_nat_div.exit.thread23, %lean_nat_div.exit
  %39 = phi ptr [ %27, %lean_nat_div.exit.thread23 ], [ %37, %lean_nat_div.exit ]
  %40 = load i32, ptr %22, align 4, !tbaa !5
  %41 = icmp sgt i32 %40, 1
  br i1 %41, label %42, label %44, !prof !10

42:                                               ; preds = %38
  %43 = add nsw i32 %40, -1
  store i32 %43, ptr %22, align 4, !tbaa !5
  br label %lean_dec.exit

44:                                               ; preds = %38
  %.not.i10 = icmp eq i32 %40, 0
  br i1 %.not.i10, label %lean_dec.exit, label %45

45:                                               ; preds = %44
  tail call void @lean_dec_ref_cold(ptr noundef nonnull %22) #4
  br label %lean_dec.exit

lean_dec.exit:                                    ; preds = %45, %44, %42
  br i1 %.not.i12, label %lean_dec.exit.thread, label %lean_dec.exit9

lean_dec.exit.thread:                             ; preds = %lean_nat_div.exit, %lean_dec.exit
  %.1.i2227 = phi ptr [ %39, %lean_dec.exit ], [ %37, %lean_nat_div.exit ]
  %46 = load i32, ptr %.2.i, align 4, !tbaa !5
  %47 = icmp sgt i32 %46, 1
  br i1 %47, label %48, label %50, !prof !10

48:                                               ; preds = %lean_dec.exit.thread
  %49 = add nsw i32 %46, -1
  store i32 %49, ptr %.2.i, align 4, !tbaa !5
  br label %lean_dec.exit9

50:                                               ; preds = %lean_dec.exit.thread
  %.not.i = icmp eq i32 %46, 0
  br i1 %.not.i, label %lean_dec.exit9, label %51

51:                                               ; preds = %50
  tail call void @lean_dec_ref_cold(ptr noundef nonnull %.2.i) #4
  br label %lean_dec.exit9

lean_dec.exit9:                                   ; preds = %28, %30, %51, %50, %48, %lean_dec.exit
  %.1.i2226 = phi ptr [ %.1.i2227, %51 ], [ %.1.i2227, %50 ], [ %.1.i2227, %48 ], [ %39, %lean_dec.exit ], [ %36, %30 ], [ inttoptr (i64 1 to ptr), %28 ]
  ret ptr %.1.i2226
}